; Function Attrs: mustprogress uwtable
define internal void @_ZNK7doctest6detail12ContextScopeIZN12_GLOBAL__N_120DOCTEST_ANON_CLASS_91fEvEUlPSoE0_E9stringifyES4_(ptr noundef nonnull readonly align 8 captures(none) dereferenceable(40) %0, ptr noundef %1) unnamed_addr #5 align 2 personality ptr @__gxx_personality_v0 {
  %3 = alloca %"struct.doctest::detail::MessageBuilder", align 8
  call void @llvm.lifetime.start.p0(i64 56, ptr nonnull %3)
  call void @_ZN7doctest6detail14MessageBuilderC1EPKciNS_10assertType4EnumE(ptr noundef nonnull align 8 dereferenceable(49) %3, ptr noundef nonnull @.str.57, i32 noundef 43, i32 noundef 1)
  %4 = getelementptr inbounds nuw i8, ptr %3, i64 40
  store ptr %1, ptr %4, align 8
  %5 = invoke noundef nonnull align 8 dereferenceable(49) ptr @_ZN7doctest6detail14MessageBuildercmIA17_cEERS1_RKT_(ptr noundef nonnull align 8 dereferenceable(49) %3, ptr noundef nonnull align 1 dereferenceable(17) @.str.65)
          to label %_ZN7doctest6detail14MessageBuildermlIA17_cEERS1_RKT_.exit.i unwind label %21

_ZN7doctest6detail14MessageBuildermlIA17_cEERS1_RKT_.exit.i: ; preds = %2
  %6 = getelementptr inbounds nuw i8, ptr %0, i64 16
  %7 = load ptr, ptr %6, align 8
  %8 = invoke noundef nonnull align 8 dereferenceable(49) ptr @_ZN7doctest6detail14MessageBuildercmINSt7__cxx1112basic_stringIcSt11char_traitsIcESaIcEEEEERS1_RKT_(ptr noundef nonnull align 8 dereferenceable(49) %5, ptr noundef nonnull align 8 dereferenceable(32) %7)
          to label %9 unwind label %21

9:                                                ; preds = %_ZN7doctest6detail14MessageBuildermlIA17_cEERS1_RKT_.exit.i
  %10 = invoke noundef nonnull align 8 dereferenceable(49) ptr @_ZN7doctest6detail14MessageBuildercmIA6_cEERS1_RKT_(ptr noundef nonnull align 8 dereferenceable(49) %8, ptr noundef nonnull align 1 dereferenceable(6) @.str.70)
          to label %11 unwind label %21

11:                                               ; preds = %9
  %12 = getelementptr inbounds nuw i8, ptr %0, i64 24
  %13 = load ptr, ptr %12, align 8
  %14 = invoke noundef nonnull align 8 dereferenceable(49) ptr @_ZN7doctest6detail14MessageBuildercmINSt7__cxx1112basic_stringIcSt11char_traitsIcESaIcEEEEERS1_RKT_(ptr noundef nonnull align 8 dereferenceable(49) %10, ptr noundef nonnull align 8 dereferenceable(32) %13)
          to label %15 unwind label %21

15:                                               ; preds = %11
  %16 = invoke noundef nonnull align 8 dereferenceable(49) ptr @_ZN7doctest6detail14MessageBuildercmIA7_cEERS1_RKT_(ptr noundef nonnull align 8 dereferenceable(49) %14, ptr noundef nonnull align 1 dereferenceable(7) @.str.67)
          to label %17 unwind label %21

17:                                               ; preds = %15
  %18 = getelementptr inbounds nuw i8, ptr %0, i64 32
  %19 = load ptr, ptr %18, align 8
  %20 = invoke noundef nonnull align 8 dereferenceable(49) ptr @_ZN7doctest6detail14MessageBuildercmISt8optionalINSt7__cxx1112basic_stringIcSt11char_traitsIcESaIcEEEEEERS1_RKT_(ptr noundef nonnull align 8 dereferenceable(49) %16, ptr noundef nonnull align 8 dereferenceable(40) %19)
          to label %_ZZN12_GLOBAL__N_120DOCTEST_ANON_CLASS_91fEvENKUlPSoE0_clES1_.exit unwind label %21

21:                                               ; preds = %17, %15, %11, %9, %_ZN7doctest6detail14MessageBuildermlIA17_cEERS1_RKT_.exit.i, %2
  %22 = landingpad { ptr, i32 }
          cleanup
  call void @_ZN7doctest6detail14MessageBuilderD1Ev(ptr noundef nonnull align 8 dereferenceable(49) %3) #18
  resume { ptr, i32 } %22

_ZZN12_GLOBAL__N_120DOCTEST_ANON_CLASS_91fEvENKUlPSoE0_clES1_.exit: ; preds = %17
  call void @_ZN7doctest6detail14MessageBuilderD1Ev(ptr noundef nonnull align 8 dereferenceable(49) %3) #18
  call void @llvm.lifetime.end.p0(i64 56, ptr nonnull %3)
  ret void
}